; ModuleID = '32/1566.c'
source_filename = "32/1566.c"
target datalayout = "e-m:e-p270:32:32-p271:32:32-p272:64:64-i64:64-f80:128-n8:16:32:64-S128"
target triple = "x86_64-pc-linux-gnu"

%struct.num = type { [100 x i8], [100 x i8] }

@.str = private unnamed_addr constant [3 x i8] c"%d\00", align 1
@.str.1 = private unnamed_addr constant [6 x i8] c"%s %s\00", align 1
@.str.2 = private unnamed_addr constant [4 x i8] c"%s\0A\00", align 1

; Function Attrs: noinline nounwind uwtable
define dso_local void @main() #0 {
  %1 = alloca [100 x %struct.num], align 16
  %2 = alloca i32, align 4
  %3 = alloca i32, align 4
  %4 = alloca i32, align 4
  %5 = alloca i32, align 4
  %6 = alloca i32, align 4
  %7 = alloca i32, align 4
  %8 = call i32 (i8*, ...) @__isoc99_scanf(i8* getelementptr inbounds ([3 x i8], [3 x i8]* @.str, i64 0, i64 0), i32* %2)
  store i32 0, i32* %4, align 4
  br label %9

9:                                                ; preds = %120, %0
  %10 = load i32, i32* %4, align 4
  %11 = load i32, i32* %2, align 4
  %12 = icmp slt i32 %10, %11
  br i1 %12, label %13, label %123

13:                                               ; preds = %9
  %14 = load i32, i32* %4, align 4
  %15 = sext i32 %14 to i64
  %16 = getelementptr inbounds [100 x %struct.num], [100 x %struct.num]* %1, i64 0, i64 %15
  %17 = getelementptr inbounds %struct.num, %struct.num* %16, i32 0, i32 0
  %18 = getelementptr inbounds [100 x i8], [100 x i8]* %17, i64 0, i64 0
  %19 = load i32, i32* %4, align 4
  %20 = sext i32 %19 to i64
  %21 = getelementptr inbounds [100 x %struct.num], [100 x %struct.num]* %1, i64 0, i64 %20
  %22 = getelementptr inbounds %struct.num, %struct.num* %21, i32 0, i32 1
  %23 = getelementptr inbounds [100 x i8], [100 x i8]* %22, i64 0, i64 0
  %24 = call i32 (i8*, ...) @__isoc99_scanf(i8* getelementptr inbounds ([6 x i8], [6 x i8]* @.str.1, i64 0, i64 0), i8* %18, i8* %23)
  %25 = load i32, i32* %4, align 4
  %26 = sext i32 %25 to i64
  %27 = getelementptr inbounds [100 x %struct.num], [100 x %struct.num]* %1, i64 0, i64 %26
  %28 = getelementptr inbounds %struct.num, %struct.num* %27, i32 0, i32 0
  %29 = getelementptr inbounds [100 x i8], [100 x i8]* %28, i64 0, i64 0
  %30 = call i64 @strlen(i8* %29) #3
  %31 = trunc i64 %30 to i32
  store i32 %31, i32* %5, align 4
  %32 = load i32, i32* %4, align 4
  %33 = sext i32 %32 to i64
  %34 = getelementptr inbounds [100 x %struct.num], [100 x %struct.num]* %1, i64 0, i64 %33
  %35 = getelementptr inbounds %struct.num, %struct.num* %34, i32 0, i32 1
  %36 = getelementptr inbounds [100 x i8], [100 x i8]* %35, i64 0, i64 0
  %37 = call i64 @strlen(i8* %36) #3
  %38 = trunc i64 %37 to i32
  store i32 %38, i32* %6, align 4
  %39 = load i32, i32* %5, align 4
  %40 = sub nsw i32 %39, 1
  store i32 %40, i32* %3, align 4
  %41 = load i32, i32* %6, align 4
  %42 = sub nsw i32 %41, 1
  store i32 %42, i32* %7, align 4
  br label %43

43:                                               ; preds = %114, %13
  %44 = load i32, i32* %3, align 4
  %45 = load i32, i32* %5, align 4
  %46 = load i32, i32* %6, align 4
  %47 = sub nsw i32 %45, %46
  %48 = icmp sge i32 %44, %47
  %49 = zext i1 %48 to i32
  %50 = load i32, i32* %7, align 4
  %51 = icmp sge i32 %50, 0
  br i1 %51, label %52, label %119

52:                                               ; preds = %43
  %53 = load i32, i32* %4, align 4
  %54 = sext i32 %53 to i64
  %55 = getelementptr inbounds [100 x %struct.num], [100 x %struct.num]* %1, i64 0, i64 %54
  %56 = getelementptr inbounds %struct.num, %struct.num* %55, i32 0, i32 0
  %57 = load i32, i32* %3, align 4
  %58 = sext i32 %57 to i64
  %59 = getelementptr inbounds [100 x i8], [100 x i8]* %56, i64 0, i64 %58
  %60 = load i8, i8* %59, align 1
  %61 = sext i8 %60 to i32
  %62 = add nsw i32 48, %61
  %63 = load i32, i32* %4, align 4
  %64 = sext i32 %63 to i64
  %65 = getelementptr inbounds [100 x %struct.num], [100 x %struct.num]* %1, i64 0, i64 %64
  %66 = getelementptr inbounds %struct.num, %struct.num* %65, i32 0, i32 1
  %67 = load i32, i32* %7, align 4
  %68 = sext i32 %67 to i64
  %69 = getelementptr inbounds [100 x i8], [100 x i8]* %66, i64 0, i64 %68
  %70 = load i8, i8* %69, align 1
  %71 = sext i8 %70 to i32
  %72 = sub nsw i32 %62, %71
  %73 = trunc i32 %72 to i8
  %74 = load i32, i32* %4, align 4
  %75 = sext i32 %74 to i64
  %76 = getelementptr inbounds [100 x %struct.num], [100 x %struct.num]* %1, i64 0, i64 %75
  %77 = getelementptr inbounds %struct.num, %struct.num* %76, i32 0, i32 0
  %78 = load i32, i32* %3, align 4
  %79 = sext i32 %78 to i64
  %80 = getelementptr inbounds [100 x i8], [100 x i8]* %77, i64 0, i64 %79
  store i8 %73, i8* %80, align 1
  %81 = load i32, i32* %4, align 4
  %82 = sext i32 %81 to i64
  %83 = getelementptr inbounds [100 x %struct.num], [100 x %struct.num]* %1, i64 0, i64 %82
  %84 = getelementptr inbounds %struct.num, %struct.num* %83, i32 0, i32 0
  %85 = load i32, i32* %3, align 4
  %86 = sext i32 %85 to i64
  %87 = getelementptr inbounds [100 x i8], [100 x i8]* %84, i64 0, i64 %86
  %88 = load i8, i8* %87, align 1
  %89 = sext i8 %88 to i32
  %90 = icmp slt i32 %89, 48
  br i1 %90, label %91, label %113

91:                                               ; preds = %52
  %92 = load i32, i32* %4, align 4
  %93 = sext i32 %92 to i64
  %94 = getelementptr inbounds [100 x %struct.num], [100 x %struct.num]* %1, i64 0, i64 %93
  %95 = getelementptr inbounds %struct.num, %struct.num* %94, i32 0, i32 0
  %96 = load i32, i32* %3, align 4
  %97 = sext i32 %96 to i64
  %98 = getelementptr inbounds [100 x i8], [100 x i8]* %95, i64 0, i64 %97
  %99 = load i8, i8* %98, align 1
  %100 = sext i8 %99 to i32
  %101 = add nsw i32 %100, 10
  %102 = trunc i32 %101 to i8
  store i8 %102, i8* %98, align 1
  %103 = load i32, i32* %4, align 4
  %104 = sext i32 %103 to i64
  %105 = getelementptr inbounds [100 x %struct.num], [100 x %struct.num]* %1, i64 0, i64 %104
  %106 = getelementptr inbounds %struct.num, %struct.num* %105, i32 0, i32 0
  %107 = load i32, i32* %3, align 4
  %108 = sub nsw i32 %107, 1
  %109 = sext i32 %108 to i64
  %110 = getelementptr inbounds [100 x i8], [100 x i8]* %106, i64 0, i64 %109
  %111 = load i8, i8* %110, align 1
  %112 = add i8 %111, -1
  store i8 %112, i8* %110, align 1
  br label %113

113:                                              ; preds = %91, %52
  br label %114

114:                                              ; preds = %113
  %115 = load i32, i32* %3, align 4
  %116 = add nsw i32 %115, -1
  store i32 %116, i32* %3, align 4
  %117 = load i32, i32* %7, align 4
  %118 = add nsw i32 %117, -1
  store i32 %118, i32* %7, align 4
  br label %43

119:                                              ; preds = %43
  br label %120

120:                                              ; preds = %119
  %121 = load i32, i32* %4, align 4
  %122 = add nsw i32 %121, 1
  store i32 %122, i32* %4, align 4
  br label %9

123:                                              ; preds = %9
  store i32 0, i32* %4, align 4
  br label %124

124:                                              ; preds = %135, %123
  %125 = load i32, i32* %4, align 4
  %126 = load i32, i32* %2, align 4
  %127 = icmp slt i32 %125, %126
  br i1 %127, label %128, label %138

128:                                              ; preds = %124
  %129 = load i32, i32* %4, align 4
  %130 = sext i32 %129 to i64
  %131 = getelementptr inbounds [100 x %struct.num], [100 x %struct.num]* %1, i64 0, i64 %130
  %132 = getelementptr inbounds %struct.num, %struct.num* %131, i32 0, i32 0
  %133 = getelementptr inbounds [100 x i8], [100 x i8]* %132, i64 0, i64 0
  %134 = call i32 (i8*, ...) @printf(i8* getelementptr inbounds ([4 x i8], [4 x i8]* @.str.2, i64 0, i64 0), i8* %133)
  br label %135

135:                                              ; preds = %128
  %136 = load i32, i32* %4, align 4
  %137 = add nsw i32 %136, 1
  store i32 %137, i32* %4, align 4
  br label %124

138:                                              ; preds = %124
  ret void
}

declare dso_local i32 @__isoc99_scanf(i8*, ...) #1

; Function Attrs: nounwind readonly
declare dso_local i64 @strlen(i8*) #2

declare dso_local i32 @printf(i8*, ...) #1


!llvm.module.flags = !{!0}
!llvm.ident = !{!1}

!0 = !{i32 1, !"wchar_size", i32 4}
!1 = !{!"clang version 10.0.0-4ubuntu1 "}
