; ModuleID = 'source-C-CXX/31/1566.c'
source_filename = "source-C-CXX/31/1566.c"
target datalayout = "e-m:e-p270:32:32-p271:32:32-p272:64:64-i64:64-f80:128-n8:16:32:64-S128"
target triple = "x86_64-pc-linux-gnu"

%struct.num = type { [100 x i8], [100 x i8] }

@.str = private unnamed_addr constant [3 x i8] c"%d\00", align 1
@.str.1 = private unnamed_addr constant [6 x i8] c"%s %s\00", align 1

; Function Attrs: nofree nounwind sspstrong uwtable
define dso_local void @main() local_unnamed_addr #0 {
  %1 = alloca [100 x %struct.num], align 16
  %2 = alloca i32, align 4
  %3 = getelementptr inbounds [100 x %struct.num], [100 x %struct.num]* %1, i64 0, i64 0, i32 0, i64 0
  call void @llvm.lifetime.start.p0i8(i64 20000, i8* nonnull %3) #5
  %4 = bitcast i32* %2 to i8*
  call void @llvm.lifetime.start.p0i8(i64 4, i8* nonnull %4) #5
  %5 = call i32 (i8*, ...) @__isoc99_scanf(i8* getelementptr inbounds ([3 x i8], [3 x i8]* @.str, i64 0, i64 0), i32* nonnull %2)
  %6 = load i32, i32* %2, align 4, !tbaa !5
  %7 = icmp sgt i32 %6, 0
  br i1 %7, label %10, label %59

8:                                                ; preds = %46
  %9 = icmp sgt i32 %48, 0
  br i1 %9, label %51, label %59

10:                                               ; preds = %0, %46
  %11 = phi i64 [ %47, %46 ], [ 0, %0 ]
  %12 = getelementptr inbounds [100 x %struct.num], [100 x %struct.num]* %1, i64 0, i64 %11, i32 0, i64 0
  %13 = getelementptr inbounds [100 x %struct.num], [100 x %struct.num]* %1, i64 0, i64 %11, i32 1, i64 0
  %14 = call i32 (i8*, ...) @__isoc99_scanf(i8* getelementptr inbounds ([6 x i8], [6 x i8]* @.str.1, i64 0, i64 0), i8* nonnull %12, i8* nonnull %13)
  %15 = call i64 @strlen(i8* noundef nonnull %13) #6
  %16 = trunc i64 %15 to i32
  %17 = icmp sgt i32 %16, 0
  br i1 %17, label %18, label %46

18:                                               ; preds = %10
  %19 = call i64 @strlen(i8* noundef nonnull %12) #6
  %20 = and i64 %15, 4294967295
  %21 = shl i64 %19, 32
  %22 = ashr exact i64 %21, 32
  br label %23

23:                                               ; preds = %18, %43
  %24 = phi i64 [ %22, %18 ], [ %28, %43 ]
  %25 = phi i64 [ %20, %18 ], [ %45, %43 ]
  %26 = phi i32 [ %16, %18 ], [ %27, %43 ]
  %27 = add nsw i32 %26, -1
  %28 = add nsw i64 %24, -1
  %29 = getelementptr inbounds [100 x %struct.num], [100 x %struct.num]* %1, i64 0, i64 %11, i32 0, i64 %28
  %30 = load i8, i8* %29, align 1, !tbaa !9
  %31 = add i8 %30, 48
  %32 = zext i32 %27 to i64
  %33 = getelementptr inbounds [100 x %struct.num], [100 x %struct.num]* %1, i64 0, i64 %11, i32 1, i64 %32
  %34 = load i8, i8* %33, align 1, !tbaa !9
  %35 = sub i8 %31, %34
  store i8 %35, i8* %29, align 1, !tbaa !9
  %36 = icmp slt i8 %35, 48
  br i1 %36, label %37, label %43

37:                                               ; preds = %23
  %38 = add nsw i8 %35, 10
  store i8 %38, i8* %29, align 1, !tbaa !9
  %39 = add nsw i64 %24, -2
  %40 = getelementptr inbounds [100 x %struct.num], [100 x %struct.num]* %1, i64 0, i64 %11, i32 0, i64 %39
  %41 = load i8, i8* %40, align 1, !tbaa !9
  %42 = add i8 %41, -1
  store i8 %42, i8* %40, align 1, !tbaa !9
  br label %43

43:                                               ; preds = %23, %37
  %44 = icmp sgt i64 %25, 1
  %45 = add nsw i64 %25, -1
  br i1 %44, label %23, label %46, !llvm.loop !10

46:                                               ; preds = %43, %10
  %47 = add nuw nsw i64 %11, 1
  %48 = load i32, i32* %2, align 4, !tbaa !5
  %49 = sext i32 %48 to i64
  %50 = icmp slt i64 %47, %49
  br i1 %50, label %10, label %8, !llvm.loop !12

51:                                               ; preds = %8, %51
  %52 = phi i64 [ %55, %51 ], [ 0, %8 ]
  %53 = getelementptr inbounds [100 x %struct.num], [100 x %struct.num]* %1, i64 0, i64 %52, i32 0, i64 0
  %54 = call i32 @puts(i8* nonnull %53)
  %55 = add nuw nsw i64 %52, 1
  %56 = load i32, i32* %2, align 4, !tbaa !5
  %57 = sext i32 %56 to i64
  %58 = icmp slt i64 %55, %57
  br i1 %58, label %51, label %59, !llvm.loop !13

59:                                               ; preds = %51, %0, %8
  call void @llvm.lifetime.end.p0i8(i64 4, i8* nonnull %4) #5
  call void @llvm.lifetime.end.p0i8(i64 20000, i8* nonnull %3) #5
  ret void
}

; Function Attrs: argmemonly mustprogress nofree nosync nounwind willreturn
declare void @llvm.lifetime.start.p0i8(i64 immarg, i8* nocapture) #1

; Function Attrs: nofree nounwind
declare noundef i32 @__isoc99_scanf(i8* nocapture noundef readonly, ...) local_unnamed_addr #2

; Function Attrs: argmemonly mustprogress nofree nounwind readonly willreturn
declare i64 @strlen(i8* nocapture) local_unnamed_addr #3

; Function Attrs: argmemonly mustprogress nofree nosync nounwind willreturn
declare void @llvm.lifetime.end.p0i8(i64 immarg, i8* nocapture) #1

; Function Attrs: nofree nounwind
declare noundef i32 @puts(i8* nocapture noundef readonly) local_unnamed_addr #4


!llvm.module.flags = !{!0, !1, !2, !3}
!llvm.ident = !{!4}

!0 = !{i32 1, !"wchar_size", i32 4}
!1 = !{i32 7, !"PIC Level", i32 2}
!2 = !{i32 7, !"PIE Level", i32 2}
!3 = !{i32 7, !"uwtable", i32 1}
!4 = !{!"clang version 13.0.0"}
!5 = !{!6, !6, i64 0}
!6 = !{!"int", !7, i64 0}
!7 = !{!"omnipotent char", !8, i64 0}
!8 = !{!"Simple C/C++ TBAA"}
!9 = !{!7, !7, i64 0}
!10 = distinct !{!10, !11}
!11 = !{!"llvm.loop.mustprogress"}
!12 = distinct !{!12, !11}
!13 = distinct !{!13, !11}
